; Function Attrs: nounwind uwtable
define ptr @l_Lean_Meta_withLocalDecl___at___private_Lean_Meta_ExprLens_0__Lean_Meta_viewAux___spec__3___rarg___boxed(ptr noundef %0, ptr noundef %1, ptr readnone captures(none) %2, ptr noundef %3, ptr noundef %4, ptr noundef %5, ptr noundef %6, ptr noundef %7) #0 {
  %9 = ptrtoint ptr %4 to i64
  %10 = and i64 %9, 1
  %.not = icmp eq i64 %10, 0
  br i1 %.not, label %11, label %lean_dec.exit12

11:                                               ; preds = %8
  %12 = load i32, ptr %4, align 4, !tbaa !4
  %13 = icmp sgt i32 %12, 1
  br i1 %13, label %14, label %16, !prof !13

14:                                               ; preds = %11
  %15 = add nsw i32 %12, -1
  store i32 %15, ptr %4, align 4, !tbaa !4
  br label %lean_dec.exit12

16:                                               ; preds = %11
  %.not.i = icmp eq i32 %12, 0
  br i1 %.not.i, label %lean_dec.exit12, label %17

17:                                               ; preds = %16
  tail call void @lean_dec_ref_cold(ptr noundef nonnull %4) #5
  br label %lean_dec.exit12

lean_dec.exit12:                                  ; preds = %17, %16, %14, %8
  %18 = ptrtoint ptr %7 to i64
  %19 = and i64 %18, 1
  %.not15 = icmp eq i64 %19, 0
  br i1 %.not15, label %20, label %lean_dec.exit

20:                                               ; preds = %lean_dec.exit12
  %21 = load i32, ptr %7, align 4, !tbaa !4
  %22 = icmp sgt i32 %21, 1
  br i1 %22, label %23, label %25, !prof !13

23:                                               ; preds = %20
  %24 = add nsw i32 %21, -1
  store i32 %24, ptr %7, align 4, !tbaa !4
  br label %lean_dec.exit

25:                                               ; preds = %20
  %.not.i13 = icmp eq i32 %21, 0
  br i1 %.not.i13, label %lean_dec.exit, label %26

26:                                               ; preds = %25
  tail call void @lean_dec_ref_cold(ptr noundef nonnull %7) #5
  br label %lean_dec.exit

lean_dec.exit:                                    ; preds = %26, %25, %23, %lean_dec.exit12
  %27 = lshr i64 %18, 1
  %28 = trunc i64 %27 to i8
  %29 = lshr i64 %9, 1
  %30 = trunc i64 %29 to i8
  %31 = tail call ptr @l_Lean_Meta_withLocalDecl___at___private_Lean_Meta_ExprLens_0__Lean_Meta_viewAux___spec__3___rarg(ptr noundef %0, ptr noundef %1, ptr poison, ptr noundef %3, i8 noundef zeroext %30, ptr noundef %5, ptr noundef %6, i8 noundef zeroext %28)
  ret ptr %31
}